target datalayout = "e-m:e-p270:32:32-p271:32:32-p272:64:64-i64:64-i128:128-f80:128-n8:16:32:64-S128"
target triple = "x86_64-pc-linux-gnu"

; Function Attrs: nounwind uwtable
define i32 @ossl_sm2_do_verify(ptr noundef %0, ptr noundef %1, ptr noundef %2, ptr noundef %3, i64 noundef %4, ptr noundef %5, i64 noundef %6) #0 {
  %8 = alloca ptr, align 8
  %9 = alloca ptr, align 8
  %10 = alloca ptr, align 8
  %11 = alloca ptr, align 8
  %12 = alloca i64, align 8
  %13 = alloca ptr, align 8
  %14 = alloca i64, align 8
  %15 = alloca ptr, align 8
  %16 = alloca i32, align 4
  store ptr %0, ptr %8, align 8, !tbaa !12
  store ptr %1, ptr %9, align 8, !tbaa !8
  store ptr %2, ptr %10, align 8, !tbaa !29
  store ptr %3, ptr %11, align 8, !tbaa !3
  store i64 %4, ptr %12, align 8, !tbaa !10
  store ptr %5, ptr %13, align 8, !tbaa !3
  store i64 %6, ptr %14, align 8, !tbaa !10
  call void @llvm.lifetime.start.p0(i64 8, ptr %15) #4
  store ptr null, ptr %15, align 8, !tbaa !24
  call void @llvm.lifetime.start.p0(i64 4, ptr %16) #4
  store i32 0, ptr %16, align 4, !tbaa !14
  %17 = load ptr, ptr %9, align 8, !tbaa !8
  %18 = load ptr, ptr %8, align 8, !tbaa !12
  %19 = load ptr, ptr %11, align 8, !tbaa !3
  %20 = load i64, ptr %12, align 8, !tbaa !10
  %21 = load ptr, ptr %13, align 8, !tbaa !3
  %22 = load i64, ptr %14, align 8, !tbaa !10
  %23 = call ptr @sm2_compute_msg_hash(ptr noundef %17, ptr noundef %18, ptr noundef %19, i64 noundef %20, ptr noundef %21, i64 noundef %22)
  store ptr %23, ptr %15, align 8, !tbaa !24
  %24 = load ptr, ptr %15, align 8, !tbaa !24
  %25 = icmp eq ptr %24, null
  br i1 %25, label %26, label %27

26:                                               ; preds = %7
  br label %32

27:                                               ; preds = %7
  %28 = load ptr, ptr %8, align 8, !tbaa !12
  %29 = load ptr, ptr %10, align 8, !tbaa !29
  %30 = load ptr, ptr %15, align 8, !tbaa !24
  %31 = call i32 @sm2_sig_verify(ptr noundef %28, ptr noundef %29, ptr noundef %30)
  store i32 %31, ptr %16, align 4, !tbaa !14
  br label %32

32:                                               ; preds = %27, %26
  %33 = load ptr, ptr %15, align 8, !tbaa !24
  call void @BN_free(ptr noundef %33)
  %34 = load i32, ptr %16, align 4, !tbaa !14
  call void @llvm.lifetime.end.p0(i64 4, ptr %16) #4
  call void @llvm.lifetime.end.p0(i64 8, ptr %15) #4
  ret i32 %34
}