; Function Attrs: nounwind uwtable
define range(i32 0, 2) i32 @ossl_sm2_do_verify(ptr noundef %0, ptr noundef %1, ptr noundef %2, ptr noundef %3, i64 noundef %4, ptr noundef %5, i64 noundef %6) local_unnamed_addr #0 {
  %8 = tail call fastcc ptr @sm2_compute_msg_hash(ptr noundef %1, ptr noundef %0, ptr noundef %3, i64 noundef %4, ptr noundef %5, i64 noundef %6)
  %9 = icmp eq ptr %8, null
  br i1 %9, label %12, label %10

10:                                               ; preds = %7
  %11 = tail call fastcc i32 @sm2_sig_verify(ptr noundef %0, ptr noundef %2, ptr noundef %8)
  br label %12

12:                                               ; preds = %7, %10
  %.0 = phi i32 [ 0, %7 ], [ %11, %10 ]
  tail call void @BN_free(ptr noundef %8) #4
  ret i32 %.0
}